target datalayout = "e-m:e-p270:32:32-p271:32:32-p272:64:64-i64:64-i128:128-f80:128-n8:16:32:64-S128"
target triple = "x86_64-unknown-linux-gnu"

%"class.EA::StdC::DateTime" = type <{ i64, i32, [4 x i8] }>

; Function Attrs: mustprogress nounwind uwtable
define dso_local noundef i64 @_ZNK2EA4StdC8DateTime10GetSecondsEv(ptr noundef nonnull align 8 dereferenceable(12) %this) #3 align 2 {
entry:
  %this.addr = alloca ptr, align 8
  store ptr %this, ptr %this.addr, align 8
  %this1 = load ptr, ptr %this.addr, align 8
  %mnSeconds = getelementptr inbounds %"class.EA::StdC::DateTime", ptr %this1, i32 0, i32 0
  %0 = load i64, ptr %mnSeconds, align 8
  ret i64 %0
}

; Function Attrs: mustprogress uwtable
define dso_local noundef i32 @_ZNK2EA4StdC8DateTime7CompareERKS1_bb(ptr noundef nonnull align 8 dereferenceable(12) %this, ptr noundef nonnull align 8 dereferenceable(12) %dateTime, i1 noundef zeroext %bCompareDate, i1 noundef zeroext %bCompareTime) #0 align 2 {
entry:
  %retval = alloca i32, align 4
  %this.addr = alloca ptr, align 8
  %dateTime.addr = alloca ptr, align 8
  %bCompareDate.addr = alloca i8, align 1
  %bCompareTime.addr = alloca i8, align 1
  %bCompareNanoseconds = alloca i8, align 1
  %nValueA = alloca i64, align 8
  %nValueB = alloca i64, align 8
  store ptr %this, ptr %this.addr, align 8
  store ptr %dateTime, ptr %dateTime.addr, align 8
  %frombool = zext i1 %bCompareDate to i8
  store i8 %frombool, ptr %bCompareDate.addr, align 1
  %frombool1 = zext i1 %bCompareTime to i8
  store i8 %frombool1, ptr %bCompareTime.addr, align 1
  %this2 = load ptr, ptr %this.addr, align 8
  store i8 1, ptr %bCompareNanoseconds, align 1
  %mnSeconds = getelementptr inbounds %"class.EA::StdC::DateTime", ptr %this2, i32 0, i32 0
  %0 = load i64, ptr %mnSeconds, align 8
  store i64 %0, ptr %nValueA, align 8
  %1 = load ptr, ptr %dateTime.addr, align 8
  %call = call noundef i64 @_ZNK2EA4StdC8DateTime10GetSecondsEv(ptr noundef nonnull align 8 dereferenceable(12) %1)
  store i64 %call, ptr %nValueB, align 8
  %2 = load i8, ptr %bCompareDate.addr, align 1
  %tobool = trunc i8 %2 to i1
  br i1 %tobool, label %land.lhs.true, label %if.else

land.lhs.true:                                    ; preds = %entry
  %3 = load i8, ptr %bCompareTime.addr, align 1
  %tobool3 = trunc i8 %3 to i1
  br i1 %tobool3, label %if.else, label %if.then

if.then:                                          ; preds = %land.lhs.true
  %4 = load i64, ptr %nValueA, align 8
  %div = sdiv i64 %4, 86400
  store i64 %div, ptr %nValueA, align 8
  %5 = load i64, ptr %nValueB, align 8
  %div4 = sdiv i64 %5, 86400
  store i64 %div4, ptr %nValueB, align 8
  store i8 0, ptr %bCompareNanoseconds, align 1
  br label %if.end10

if.else:                                          ; preds = %land.lhs.true, %entry
  %6 = load i8, ptr %bCompareDate.addr, align 1
  %tobool5 = trunc i8 %6 to i1
  br i1 %tobool5, label %if.end, label %land.lhs.true6

land.lhs.true6:                                   ; preds = %if.else
  %7 = load i8, ptr %bCompareTime.addr, align 1
  %tobool7 = trunc i8 %7 to i1
  br i1 %tobool7, label %if.then8, label %if.end

if.then8:                                         ; preds = %land.lhs.true6
  %8 = load i64, ptr %nValueA, align 8
  %rem = srem i64 %8, 86400
  store i64 %rem, ptr %nValueA, align 8
  %9 = load i64, ptr %nValueB, align 8
  %rem9 = srem i64 %9, 86400
  store i64 %rem9, ptr %nValueB, align 8
  br label %if.end

if.end:                                           ; preds = %if.then8, %land.lhs.true6, %if.else
  br label %if.end10

if.end10:                                         ; preds = %if.end, %if.then
  %10 = load i8, ptr %bCompareNanoseconds, align 1
  %tobool11 = trunc i8 %10 to i1
  br i1 %tobool11, label %land.lhs.true12, label %if.end16

land.lhs.true12:                                  ; preds = %if.end10
  %11 = load i64, ptr %nValueA, align 8
  %12 = load i64, ptr %nValueB, align 8
  %cmp = icmp eq i64 %11, %12
  br i1 %cmp, label %if.then13, label %if.end16

if.then13:                                        ; preds = %land.lhs.true12
  %mnNanosecond = getelementptr inbounds %"class.EA::StdC::DateTime", ptr %this2, i32 0, i32 1
  %13 = load i32, ptr %mnNanosecond, align 8
  %conv = zext i32 %13 to i64
  store i64 %conv, ptr %nValueA, align 8
  %14 = load ptr, ptr %dateTime.addr, align 8
  %mnNanosecond14 = getelementptr inbounds %"class.EA::StdC::DateTime", ptr %14, i32 0, i32 1
  %15 = load i32, ptr %mnNanosecond14, align 8
  %conv15 = zext i32 %15 to i64
  store i64 %conv15, ptr %nValueB, align 8
  br label %if.end16

if.end16:                                         ; preds = %if.then13, %land.lhs.true12, %if.end10
  %16 = load i64, ptr %nValueA, align 8
  %17 = load i64, ptr %nValueB, align 8
  %cmp17 = icmp eq i64 %16, %17
  br i1 %cmp17, label %if.then18, label %if.else19

if.then18:                                        ; preds = %if.end16
  store i32 0, ptr %retval, align 4
  br label %return

if.else19:                                        ; preds = %if.end16
  %18 = load i64, ptr %nValueA, align 8
  %19 = load i64, ptr %nValueB, align 8
  %cmp20 = icmp slt i64 %18, %19
  br i1 %cmp20, label %if.then21, label %if.end22

if.then21:                                        ; preds = %if.else19
  store i32 -1, ptr %retval, align 4
  br label %return

if.end22:                                         ; preds = %if.else19
  br label %if.end23

if.end23:                                         ; preds = %if.end22
  store i32 1, ptr %retval, align 4
  br label %return

return:                                           ; preds = %if.end23, %if.then21, %if.then18
  %20 = load i32, ptr %retval, align 4
  ret i32 %20
}