; Function Attrs: mustprogress nofree norecurse nosync nounwind willreturn memory(argmem: read) uwtable
define dso_local noundef range(i32 -1, 2) i32 @_ZNK2EA4StdC8DateTime7CompareERKS1_bb(ptr noundef nonnull readonly align 8 captures(none) dereferenceable(12) %this, ptr noundef nonnull readonly align 8 captures(none) dereferenceable(12) %dateTime, i1 noundef zeroext %bCompareDate, i1 noundef zeroext %bCompareTime) local_unnamed_addr #10 align 2 {
entry:
  %0 = load i64, ptr %this, align 8
  %1 = load i64, ptr %dateTime, align 8
  %bCompareDate.not = xor i1 %bCompareDate, true
  %brmerge = or i1 %bCompareTime, %bCompareDate.not
  br i1 %brmerge, label %if.else, label %if.then

if.then:                                          ; preds = %entry
  %div = sdiv i64 %0, 86400
  %div4 = sdiv i64 %1, 86400
  br label %if.end10

if.else:                                          ; preds = %entry
  %bCompareTime.not = xor i1 %bCompareTime, true
  %brmerge12 = or i1 %bCompareDate, %bCompareTime.not
  br i1 %brmerge12, label %if.end10, label %if.then8

if.then8:                                         ; preds = %if.else
  %rem = srem i64 %0, 86400
  %rem9 = srem i64 %1, 86400
  br label %if.end10

if.end10:                                         ; preds = %if.else, %if.then8, %if.then
  %nValueA.0 = phi i64 [ %0, %if.else ], [ %rem, %if.then8 ], [ %div, %if.then ]
  %nValueB.0 = phi i64 [ %1, %if.else ], [ %rem9, %if.then8 ], [ %div4, %if.then ]
  %cmp = icmp eq i64 %nValueA.0, %nValueB.0
  %or.cond = select i1 %brmerge, i1 %cmp, i1 false
  %mnNanosecond = getelementptr inbounds nuw i8, ptr %this, i64 8
  %2 = load i32, ptr %mnNanosecond, align 8
  %conv = zext i32 %2 to i64
  %mnNanosecond14 = getelementptr inbounds nuw i8, ptr %dateTime, i64 8
  %3 = load i32, ptr %mnNanosecond14, align 8
  %conv15 = zext i32 %3 to i64
  %nValueA.1 = select i1 %or.cond, i64 %conv, i64 %nValueA.0
  %nValueB.1 = select i1 %or.cond, i64 %conv15, i64 %nValueB.0
  %retval.0 = tail call i32 @llvm.scmp.i32.i64(i64 %nValueA.1, i64 %nValueB.1)
  ret i32 %retval.0
}